; ModuleID = '11/738.c'
source_filename = "11/738.c"
target datalayout = "e-m:e-p270:32:32-p271:32:32-p272:64:64-i64:64-f80:128-n8:16:32:64-S128"
target triple = "x86_64-pc-linux-gnu"

@__const.main.a = private unnamed_addr constant [13 x i32] [i32 0, i32 31, i32 28, i32 31, i32 30, i32 31, i32 30, i32 31, i32 31, i32 30, i32 31, i32 30, i32 31], align 16
@.str = private unnamed_addr constant [7 x i8] c"%d%d%d\00", align 1
@.str.1 = private unnamed_addr constant [3 x i8] c"%d\00", align 1

; Function Attrs: noinline nounwind uwtable
define dso_local i32 @main() #0 {
  %1 = alloca i32, align 4
  %2 = alloca [13 x i32], align 16
  %3 = alloca i32, align 4
  %4 = alloca i32, align 4
  %5 = alloca i32, align 4
  %6 = alloca i32, align 4
  %7 = alloca i32, align 4
  store i32 0, i32* %1, align 4
  %8 = bitcast [13 x i32]* %2 to i8*
  call void @llvm.memcpy.p0i8.p0i8.i64(i8* align 16 %8, i8* align 16 bitcast ([13 x i32]* @__const.main.a to i8*), i64 52, i1 false)
  store i32 0, i32* %7, align 4
  %9 = call i32 (i8*, ...) @__isoc99_scanf(i8* getelementptr inbounds ([7 x i8], [7 x i8]* @.str, i64 0, i64 0), i32* %3, i32* %4, i32* %5)
  %10 = load i32, i32* %3, align 4
  %11 = srem i32 %10, 4
  %12 = icmp eq i32 %11, 0
  br i1 %12, label %13, label %33

13:                                               ; preds = %0
  %14 = load i32, i32* %3, align 4
  %15 = srem i32 %14, 100
  %16 = icmp eq i32 %15, 0
  br i1 %16, label %17, label %23

17:                                               ; preds = %13
  %18 = load i32, i32* %3, align 4
  %19 = srem i32 %18, 400
  %20 = icmp ne i32 %19, 0
  br i1 %20, label %21, label %23

21:                                               ; preds = %17
  %22 = getelementptr inbounds [13 x i32], [13 x i32]* %2, i64 0, i64 2
  store i32 28, i32* %22, align 8
  br label %32

23:                                               ; preds = %17, %13
  %24 = load i32, i32* %3, align 4
  %25 = srem i32 %24, 400
  %26 = icmp eq i32 %25, 0
  br i1 %26, label %27, label %29

27:                                               ; preds = %23
  %28 = getelementptr inbounds [13 x i32], [13 x i32]* %2, i64 0, i64 2
  store i32 29, i32* %28, align 8
  br label %31

29:                                               ; preds = %23
  %30 = getelementptr inbounds [13 x i32], [13 x i32]* %2, i64 0, i64 2
  store i32 29, i32* %30, align 8
  br label %31

31:                                               ; preds = %29, %27
  br label %32

32:                                               ; preds = %31, %21
  br label %35

33:                                               ; preds = %0
  %34 = getelementptr inbounds [13 x i32], [13 x i32]* %2, i64 0, i64 2
  store i32 28, i32* %34, align 8
  br label %35

35:                                               ; preds = %33, %32
  store i32 1, i32* %6, align 4
  br label %36

36:                                               ; preds = %47, %35
  %37 = load i32, i32* %6, align 4
  %38 = load i32, i32* %4, align 4
  %39 = icmp slt i32 %37, %38
  br i1 %39, label %40, label %50

40:                                               ; preds = %36
  %41 = load i32, i32* %7, align 4
  %42 = load i32, i32* %6, align 4
  %43 = sext i32 %42 to i64
  %44 = getelementptr inbounds [13 x i32], [13 x i32]* %2, i64 0, i64 %43
  %45 = load i32, i32* %44, align 4
  %46 = add nsw i32 %41, %45
  store i32 %46, i32* %7, align 4
  br label %47

47:                                               ; preds = %40
  %48 = load i32, i32* %6, align 4
  %49 = add nsw i32 %48, 1
  store i32 %49, i32* %6, align 4
  br label %36

50:                                               ; preds = %36
  %51 = load i32, i32* %7, align 4
  %52 = load i32, i32* %5, align 4
  %53 = add nsw i32 %51, %52
  store i32 %53, i32* %7, align 4
  %54 = load i32, i32* %7, align 4
  %55 = call i32 (i8*, ...) @printf(i8* getelementptr inbounds ([3 x i8], [3 x i8]* @.str.1, i64 0, i64 0), i32 %54)
  ret i32 0
}

; Function Attrs: argmemonly nounwind willreturn
declare void @llvm.memcpy.p0i8.p0i8.i64(i8* noalias nocapture writeonly, i8* noalias nocapture readonly, i64, i1 immarg) #1

declare dso_local i32 @__isoc99_scanf(i8*, ...) #2

declare dso_local i32 @printf(i8*, ...) #2


!llvm.module.flags = !{!0}
!llvm.ident = !{!1}

!0 = !{i32 1, !"wchar_size", i32 4}
!1 = !{!"clang version 10.0.0-4ubuntu1 "}
