; ModuleID = 'source-C-CXX/10/738.c'
source_filename = "source-C-CXX/10/738.c"
target datalayout = "e-m:e-p270:32:32-p271:32:32-p272:64:64-i64:64-f80:128-n8:16:32:64-S128"
target triple = "x86_64-pc-linux-gnu"

@__const.main.a = private unnamed_addr constant [13 x i32] [i32 0, i32 31, i32 28, i32 31, i32 30, i32 31, i32 30, i32 31, i32 31, i32 30, i32 31, i32 30, i32 31], align 16
@.str = private unnamed_addr constant [7 x i8] c"%d%d%d\00", align 1
@.str.1 = private unnamed_addr constant [3 x i8] c"%d\00", align 1

; Function Attrs: nofree nounwind sspstrong uwtable
define dso_local i32 @main() local_unnamed_addr #0 {
  %1 = alloca [13 x i32], align 16
  %2 = alloca i32, align 4
  %3 = alloca i32, align 4
  %4 = alloca i32, align 4
  %5 = bitcast [13 x i32]* %1 to i8*
  call void @llvm.lifetime.start.p0i8(i64 52, i8* nonnull %5) #5
  call void @llvm.memcpy.p0i8.p0i8.i64(i8* noundef nonnull align 16 dereferenceable(52) %5, i8* noundef nonnull align 16 dereferenceable(52) bitcast ([13 x i32]* @__const.main.a to i8*), i64 52, i1 false)
  %6 = bitcast i32* %2 to i8*
  call void @llvm.lifetime.start.p0i8(i64 4, i8* nonnull %6) #5
  %7 = bitcast i32* %3 to i8*
  call void @llvm.lifetime.start.p0i8(i64 4, i8* nonnull %7) #5
  %8 = bitcast i32* %4 to i8*
  call void @llvm.lifetime.start.p0i8(i64 4, i8* nonnull %8) #5
  %9 = call i32 (i8*, ...) @__isoc99_scanf(i8* getelementptr inbounds ([7 x i8], [7 x i8]* @.str, i64 0, i64 0), i32* nonnull %2, i32* nonnull %3, i32* nonnull %4)
  %10 = load i32, i32* %2, align 4, !tbaa !5
  %11 = and i32 %10, 3
  %12 = icmp eq i32 %11, 0
  br i1 %12, label %13, label %20

13:                                               ; preds = %0
  %14 = srem i32 %10, 100
  %15 = icmp ne i32 %14, 0
  %16 = srem i32 %10, 400
  %17 = icmp eq i32 %16, 0
  %18 = or i1 %15, %17
  %19 = select i1 %18, i32 29, i32 28
  br label %20

20:                                               ; preds = %0, %13
  %21 = phi i32 [ %19, %13 ], [ 28, %0 ]
  %22 = getelementptr inbounds [13 x i32], [13 x i32]* %1, i64 0, i64 2
  store i32 %21, i32* %22, align 8, !tbaa !5
  %23 = load i32, i32* %3, align 4, !tbaa !5
  %24 = icmp sgt i32 %23, 1
  br i1 %24, label %25, label %124

25:                                               ; preds = %20
  %26 = zext i32 %23 to i64
  %27 = add nsw i64 %26, -1
  %28 = icmp ult i64 %27, 8
  br i1 %28, label %113, label %29

29:                                               ; preds = %25
  %30 = and i64 %27, -8
  %31 = or i64 %30, 1
  %32 = add nsw i64 %30, -8
  %33 = lshr exact i64 %32, 3
  %34 = add nuw nsw i64 %33, 1
  %35 = and i64 %34, 3
  %36 = icmp ult i64 %32, 24
  br i1 %36, label %83, label %37

37:                                               ; preds = %29
  %38 = and i64 %34, 4611686018427387900
  br label %39

39:                                               ; preds = %39, %37
  %40 = phi i64 [ 0, %37 ], [ %80, %39 ]
  %41 = phi <4 x i32> [ zeroinitializer, %37 ], [ %78, %39 ]
  %42 = phi <4 x i32> [ zeroinitializer, %37 ], [ %79, %39 ]
  %43 = phi i64 [ %38, %37 ], [ %81, %39 ]
  %44 = or i64 %40, 1
  %45 = getelementptr inbounds [13 x i32], [13 x i32]* %1, i64 0, i64 %44
  %46 = bitcast i32* %45 to <4 x i32>*
  %47 = load <4 x i32>, <4 x i32>* %46, align 4, !tbaa !5
  %48 = getelementptr inbounds i32, i32* %45, i64 4
  %49 = bitcast i32* %48 to <4 x i32>*
  %50 = load <4 x i32>, <4 x i32>* %49, align 4, !tbaa !5
  %51 = add <4 x i32> %47, %41
  %52 = add <4 x i32> %50, %42
  %53 = or i64 %40, 9
  %54 = getelementptr inbounds [13 x i32], [13 x i32]* %1, i64 0, i64 %53
  %55 = bitcast i32* %54 to <4 x i32>*
  %56 = load <4 x i32>, <4 x i32>* %55, align 4, !tbaa !5
  %57 = getelementptr inbounds i32, i32* %54, i64 4
  %58 = bitcast i32* %57 to <4 x i32>*
  %59 = load <4 x i32>, <4 x i32>* %58, align 4, !tbaa !5
  %60 = add <4 x i32> %56, %51
  %61 = add <4 x i32> %59, %52
  %62 = or i64 %40, 17
  %63 = getelementptr inbounds [13 x i32], [13 x i32]* %1, i64 0, i64 %62
  %64 = bitcast i32* %63 to <4 x i32>*
  %65 = load <4 x i32>, <4 x i32>* %64, align 4, !tbaa !5
  %66 = getelementptr inbounds i32, i32* %63, i64 4
  %67 = bitcast i32* %66 to <4 x i32>*
  %68 = load <4 x i32>, <4 x i32>* %67, align 4, !tbaa !5
  %69 = add <4 x i32> %65, %60
  %70 = add <4 x i32> %68, %61
  %71 = or i64 %40, 25
  %72 = getelementptr inbounds [13 x i32], [13 x i32]* %1, i64 0, i64 %71
  %73 = bitcast i32* %72 to <4 x i32>*
  %74 = load <4 x i32>, <4 x i32>* %73, align 4, !tbaa !5
  %75 = getelementptr inbounds i32, i32* %72, i64 4
  %76 = bitcast i32* %75 to <4 x i32>*
  %77 = load <4 x i32>, <4 x i32>* %76, align 4, !tbaa !5
  %78 = add <4 x i32> %74, %69
  %79 = add <4 x i32> %77, %70
  %80 = add nuw i64 %40, 32
  %81 = add i64 %43, -4
  %82 = icmp eq i64 %81, 0
  br i1 %82, label %83, label %39, !llvm.loop !9

83:                                               ; preds = %39, %29
  %84 = phi <4 x i32> [ undef, %29 ], [ %78, %39 ]
  %85 = phi <4 x i32> [ undef, %29 ], [ %79, %39 ]
  %86 = phi i64 [ 0, %29 ], [ %80, %39 ]
  %87 = phi <4 x i32> [ zeroinitializer, %29 ], [ %78, %39 ]
  %88 = phi <4 x i32> [ zeroinitializer, %29 ], [ %79, %39 ]
  %89 = icmp eq i64 %35, 0
  br i1 %89, label %107, label %90

90:                                               ; preds = %83, %90
  %91 = phi i64 [ %104, %90 ], [ %86, %83 ]
  %92 = phi <4 x i32> [ %102, %90 ], [ %87, %83 ]
  %93 = phi <4 x i32> [ %103, %90 ], [ %88, %83 ]
  %94 = phi i64 [ %105, %90 ], [ %35, %83 ]
  %95 = or i64 %91, 1
  %96 = getelementptr inbounds [13 x i32], [13 x i32]* %1, i64 0, i64 %95
  %97 = bitcast i32* %96 to <4 x i32>*
  %98 = load <4 x i32>, <4 x i32>* %97, align 4, !tbaa !5
  %99 = getelementptr inbounds i32, i32* %96, i64 4
  %100 = bitcast i32* %99 to <4 x i32>*
  %101 = load <4 x i32>, <4 x i32>* %100, align 4, !tbaa !5
  %102 = add <4 x i32> %98, %92
  %103 = add <4 x i32> %101, %93
  %104 = add nuw i64 %91, 8
  %105 = add i64 %94, -1
  %106 = icmp eq i64 %105, 0
  br i1 %106, label %107, label %90, !llvm.loop !12

107:                                              ; preds = %90, %83
  %108 = phi <4 x i32> [ %84, %83 ], [ %102, %90 ]
  %109 = phi <4 x i32> [ %85, %83 ], [ %103, %90 ]
  %110 = add <4 x i32> %109, %108
  %111 = call i32 @llvm.vector.reduce.add.v4i32(<4 x i32> %110)
  %112 = icmp eq i64 %27, %30
  br i1 %112, label %124, label %113

113:                                              ; preds = %25, %107
  %114 = phi i64 [ 1, %25 ], [ %31, %107 ]
  %115 = phi i32 [ 0, %25 ], [ %111, %107 ]
  br label %116

116:                                              ; preds = %113, %116
  %117 = phi i64 [ %122, %116 ], [ %114, %113 ]
  %118 = phi i32 [ %121, %116 ], [ %115, %113 ]
  %119 = getelementptr inbounds [13 x i32], [13 x i32]* %1, i64 0, i64 %117
  %120 = load i32, i32* %119, align 4, !tbaa !5
  %121 = add nsw i32 %120, %118
  %122 = add nuw nsw i64 %117, 1
  %123 = icmp eq i64 %122, %26
  br i1 %123, label %124, label %116, !llvm.loop !14

124:                                              ; preds = %116, %107, %20
  %125 = phi i32 [ 0, %20 ], [ %111, %107 ], [ %121, %116 ]
  %126 = load i32, i32* %4, align 4, !tbaa !5
  %127 = add nsw i32 %126, %125
  %128 = call i32 (i8*, ...) @printf(i8* nonnull dereferenceable(1) getelementptr inbounds ([3 x i8], [3 x i8]* @.str.1, i64 0, i64 0), i32 %127)
  call void @llvm.lifetime.end.p0i8(i64 4, i8* nonnull %8) #5
  call void @llvm.lifetime.end.p0i8(i64 4, i8* nonnull %7) #5
  call void @llvm.lifetime.end.p0i8(i64 4, i8* nonnull %6) #5
  call void @llvm.lifetime.end.p0i8(i64 52, i8* nonnull %5) #5
  ret i32 0
}

; Function Attrs: argmemonly mustprogress nofree nosync nounwind willreturn
declare void @llvm.lifetime.start.p0i8(i64 immarg, i8* nocapture) #1

; Function Attrs: argmemonly mustprogress nofree nounwind willreturn
declare void @llvm.memcpy.p0i8.p0i8.i64(i8* noalias nocapture writeonly, i8* noalias nocapture readonly, i64, i1 immarg) #2

; Function Attrs: nofree nounwind
declare noundef i32 @__isoc99_scanf(i8* nocapture noundef readonly, ...) local_unnamed_addr #3

; Function Attrs: nofree nounwind
declare noundef i32 @printf(i8* nocapture noundef readonly, ...) local_unnamed_addr #3

; Function Attrs: argmemonly mustprogress nofree nosync nounwind willreturn
declare void @llvm.lifetime.end.p0i8(i64 immarg, i8* nocapture) #1

; Function Attrs: nofree nosync nounwind readnone willreturn
declare i32 @llvm.vector.reduce.add.v4i32(<4 x i32>) #4


!llvm.module.flags = !{!0, !1, !2, !3}
!llvm.ident = !{!4}

!0 = !{i32 1, !"wchar_size", i32 4}
!1 = !{i32 7, !"PIC Level", i32 2}
!2 = !{i32 7, !"PIE Level", i32 2}
!3 = !{i32 7, !"uwtable", i32 1}
!4 = !{!"clang version 13.0.0"}
!5 = !{!6, !6, i64 0}
!6 = !{!"int", !7, i64 0}
!7 = !{!"omnipotent char", !8, i64 0}
!8 = !{!"Simple C/C++ TBAA"}
!9 = distinct !{!9, !10, !11}
!10 = !{!"llvm.loop.mustprogress"}
!11 = !{!"llvm.loop.isvectorized", i32 1}
!12 = distinct !{!12, !13}
!13 = !{!"llvm.loop.unroll.disable"}
!14 = distinct !{!14, !10, !15, !11}
!15 = !{!"llvm.loop.unroll.runtime.disable"}
